target datalayout = "e-m:e-p270:32:32-p271:32:32-p272:64:64-i64:64-i128:128-f80:128-n8:16:32:64-S128"
target triple = "x86_64-pc-linux-gnu"

%struct.UriMemoryManagerStruct = type { ptr, ptr, ptr, ptr, ptr, ptr }
%struct.UriParserStateStructA = type { ptr, i32, ptr, ptr }
%struct.UriUriStructA = type { %struct.UriTextRangeStructA, %struct.UriTextRangeStructA, %struct.UriTextRangeStructA, %struct.UriHostDataStructA, %struct.UriTextRangeStructA, ptr, ptr, %struct.UriTextRangeStructA, %struct.UriTextRangeStructA, i32, i32, ptr }
%struct.UriHostDataStructA = type { ptr, ptr, %struct.UriTextRangeStructA }
%struct.UriTextRangeStructA = type { ptr, ptr }

; Function Attrs: inlinehint nounwind uwtable
define internal void @uriStopMallocA(ptr noundef %0, ptr noundef %1) #4 {
  %3 = alloca ptr, align 8
  %4 = alloca ptr, align 8
  store ptr %0, ptr %3, align 8, !tbaa !3
  store ptr %1, ptr %4, align 8, !tbaa !10
  %5 = load ptr, ptr %3, align 8, !tbaa !3
  %6 = getelementptr inbounds nuw %struct.UriParserStateStructA, ptr %5, i32 0, i32 0
  %7 = load ptr, ptr %6, align 8, !tbaa !12
  %8 = load ptr, ptr %4, align 8, !tbaa !10
  %9 = call i32 @uriFreeUriMembersMmA(ptr noundef %7, ptr noundef %8)
  %10 = load ptr, ptr %3, align 8, !tbaa !3
  %11 = getelementptr inbounds nuw %struct.UriParserStateStructA, ptr %10, i32 0, i32 2
  store ptr null, ptr %11, align 8, !tbaa !17
  %12 = load ptr, ptr %3, align 8, !tbaa !3
  %13 = getelementptr inbounds nuw %struct.UriParserStateStructA, ptr %12, i32 0, i32 1
  store i32 3, ptr %13, align 8, !tbaa !18
  ret void
}

; Function Attrs: inlinehint nounwind uwtable
define internal void @uriStopSyntaxA(ptr noundef %0, ptr noundef %1, ptr noundef %2) #4 {
  %4 = alloca ptr, align 8
  %5 = alloca ptr, align 8
  %6 = alloca ptr, align 8
  store ptr %0, ptr %4, align 8, !tbaa !3
  store ptr %1, ptr %5, align 8, !tbaa !8
  store ptr %2, ptr %6, align 8, !tbaa !10
  %7 = load ptr, ptr %4, align 8, !tbaa !3
  %8 = getelementptr inbounds nuw %struct.UriParserStateStructA, ptr %7, i32 0, i32 0
  %9 = load ptr, ptr %8, align 8, !tbaa !12
  %10 = load ptr, ptr %6, align 8, !tbaa !10
  %11 = call i32 @uriFreeUriMembersMmA(ptr noundef %9, ptr noundef %10)
  %12 = load ptr, ptr %5, align 8, !tbaa !8
  %13 = load ptr, ptr %4, align 8, !tbaa !3
  %14 = getelementptr inbounds nuw %struct.UriParserStateStructA, ptr %13, i32 0, i32 2
  store ptr %12, ptr %14, align 8, !tbaa !17
  %15 = load ptr, ptr %4, align 8, !tbaa !3
  %16 = getelementptr inbounds nuw %struct.UriParserStateStructA, ptr %15, i32 0, i32 1
  store i32 1, ptr %16, align 8, !tbaa !18
  ret void
}

; Function Attrs: inlinehint nounwind uwtable
define internal ptr @uriParseIpLit2A(ptr noundef %0, ptr noundef %1, ptr noundef %2, ptr noundef %3) #4 {
  %5 = alloca ptr, align 8
  %6 = alloca ptr, align 8
  %7 = alloca ptr, align 8
  %8 = alloca ptr, align 8
  %9 = alloca ptr, align 8
  %10 = alloca ptr, align 8
  %11 = alloca i32, align 4
  store ptr %0, ptr %6, align 8, !tbaa !3
  store ptr %1, ptr %7, align 8, !tbaa !8
  store ptr %2, ptr %8, align 8, !tbaa !8
  store ptr %3, ptr %9, align 8, !tbaa !10
  %12 = load ptr, ptr %7, align 8, !tbaa !8
  %13 = load ptr, ptr %8, align 8, !tbaa !8
  %14 = icmp uge ptr %12, %13
  br i1 %14, label %15, label %19

15:                                               ; preds = %4
  %16 = load ptr, ptr %6, align 8, !tbaa !3
  %17 = load ptr, ptr %8, align 8, !tbaa !8
  %18 = load ptr, ptr %9, align 8, !tbaa !10
  call void @uriStopSyntaxA(ptr noundef %16, ptr noundef %17, ptr noundef %18)
  store ptr null, ptr %5, align 8
  br label %84

19:                                               ; preds = %4
  %20 = load ptr, ptr %7, align 8, !tbaa !8
  %21 = load i8, ptr %20, align 1, !tbaa !57
  %22 = sext i8 %21 to i32
  switch i32 %22, label %80 [
    i32 118, label %23
    i32 58, label %53
    i32 93, label %53
    i32 48, label %53
    i32 49, label %53
    i32 50, label %53
    i32 51, label %53
    i32 52, label %53
    i32 53, label %53
    i32 54, label %53
    i32 55, label %53
    i32 56, label %53
    i32 57, label %53
    i32 65, label %53
    i32 66, label %53
    i32 67, label %53
    i32 68, label %53
    i32 69, label %53
    i32 70, label %53
    i32 97, label %53
    i32 98, label %53
    i32 99, label %53
    i32 100, label %53
    i32 101, label %53
    i32 102, label %53
  ]

23:                                               ; preds = %19
  call void @llvm.lifetime.start.p0(i64 8, ptr %10) #7
  %24 = load ptr, ptr %6, align 8, !tbaa !3
  %25 = load ptr, ptr %7, align 8, !tbaa !8
  %26 = load ptr, ptr %8, align 8, !tbaa !8
  %27 = load ptr, ptr %9, align 8, !tbaa !10
  %28 = call ptr @uriParseIpFutureA(ptr noundef %24, ptr noundef %25, ptr noundef %26, ptr noundef %27)
  store ptr %28, ptr %10, align 8, !tbaa !8
  %29 = load ptr, ptr %10, align 8, !tbaa !8
  %30 = icmp eq ptr %29, null
  br i1 %30, label %31, label %32

31:                                               ; preds = %23
  store ptr null, ptr %5, align 8
  store i32 1, ptr %11, align 4
  br label %52

32:                                               ; preds = %23
  %33 = load ptr, ptr %10, align 8, !tbaa !8
  %34 = load ptr, ptr %8, align 8, !tbaa !8
  %35 = icmp uge ptr %33, %34
  br i1 %35, label %36, label %40

36:                                               ; preds = %32
  %37 = load ptr, ptr %6, align 8, !tbaa !3
  %38 = load ptr, ptr %8, align 8, !tbaa !8
  %39 = load ptr, ptr %9, align 8, !tbaa !10
  call void @uriStopSyntaxA(ptr noundef %37, ptr noundef %38, ptr noundef %39)
  store ptr null, ptr %5, align 8
  store i32 1, ptr %11, align 4
  br label %52

40:                                               ; preds = %32
  %41 = load ptr, ptr %10, align 8, !tbaa !8
  %42 = load i8, ptr %41, align 1, !tbaa !57
  %43 = sext i8 %42 to i32
  %44 = icmp ne i32 %43, 93
  br i1 %44, label %45, label %49

45:                                               ; preds = %40
  %46 = load ptr, ptr %6, align 8, !tbaa !3
  %47 = load ptr, ptr %10, align 8, !tbaa !8
  %48 = load ptr, ptr %9, align 8, !tbaa !10
  call void @uriStopSyntaxA(ptr noundef %46, ptr noundef %47, ptr noundef %48)
  store ptr null, ptr %5, align 8
  store i32 1, ptr %11, align 4
  br label %52

49:                                               ; preds = %40
  %50 = load ptr, ptr %10, align 8, !tbaa !8
  %51 = getelementptr inbounds i8, ptr %50, i64 1
  store ptr %51, ptr %5, align 8
  store i32 1, ptr %11, align 4
  br label %52

52:                                               ; preds = %49, %45, %36, %31
  call void @llvm.lifetime.end.p0(i64 8, ptr %10) #7
  br label %84

53:                                               ; preds = %19, %19, %19, %19, %19, %19, %19, %19, %19, %19, %19, %19, %19, %19, %19, %19, %19, %19, %19, %19, %19, %19, %19, %19
  %54 = load ptr, ptr %9, align 8, !tbaa !10
  %55 = getelementptr inbounds nuw %struct.UriMemoryManagerStruct, ptr %54, i32 0, i32 0
  %56 = load ptr, ptr %55, align 8, !tbaa !56
  %57 = load ptr, ptr %9, align 8, !tbaa !10
  %58 = call ptr %56(ptr noundef %57, i64 noundef 16)
  %59 = load ptr, ptr %6, align 8, !tbaa !3
  %60 = getelementptr inbounds nuw %struct.UriParserStateStructA, ptr %59, i32 0, i32 0
  %61 = load ptr, ptr %60, align 8, !tbaa !12
  %62 = getelementptr inbounds nuw %struct.UriUriStructA, ptr %61, i32 0, i32 3
  %63 = getelementptr inbounds nuw %struct.UriHostDataStructA, ptr %62, i32 0, i32 1
  store ptr %58, ptr %63, align 8, !tbaa !40
  %64 = load ptr, ptr %6, align 8, !tbaa !3
  %65 = getelementptr inbounds nuw %struct.UriParserStateStructA, ptr %64, i32 0, i32 0
  %66 = load ptr, ptr %65, align 8, !tbaa !12
  %67 = getelementptr inbounds nuw %struct.UriUriStructA, ptr %66, i32 0, i32 3
  %68 = getelementptr inbounds nuw %struct.UriHostDataStructA, ptr %67, i32 0, i32 1
  %69 = load ptr, ptr %68, align 8, !tbaa !40
  %70 = icmp eq ptr %69, null
  br i1 %70, label %71, label %74

71:                                               ; preds = %53
  %72 = load ptr, ptr %6, align 8, !tbaa !3
  %73 = load ptr, ptr %9, align 8, !tbaa !10
  call void @uriStopMallocA(ptr noundef %72, ptr noundef %73)
  store ptr null, ptr %5, align 8
  br label %84

74:                                               ; preds = %53
  %75 = load ptr, ptr %6, align 8, !tbaa !3
  %76 = load ptr, ptr %7, align 8, !tbaa !8
  %77 = load ptr, ptr %8, align 8, !tbaa !8
  %78 = load ptr, ptr %9, align 8, !tbaa !10
  %79 = call ptr @uriParseIPv6address2A(ptr noundef %75, ptr noundef %76, ptr noundef %77, ptr noundef %78)
  store ptr %79, ptr %5, align 8
  br label %84

80:                                               ; preds = %19
  %81 = load ptr, ptr %6, align 8, !tbaa !3
  %82 = load ptr, ptr %7, align 8, !tbaa !8
  %83 = load ptr, ptr %9, align 8, !tbaa !10
  call void @uriStopSyntaxA(ptr noundef %81, ptr noundef %82, ptr noundef %83)
  store ptr null, ptr %5, align 8
  br label %84

84:                                               ; preds = %80, %74, %71, %52, %15
  %85 = load ptr, ptr %5, align 8
  ret ptr %85
}