; Function Attrs: inlinehint nounwind uwtable
define internal fastcc ptr @uriParseIpLit2A(ptr noundef nonnull %0, ptr noundef nonnull %1, ptr noundef nonnull %2, ptr noundef %3) unnamed_addr #4 {
  %.not = icmp ult ptr %1, %2
  br i1 %.not, label %10, label %5

5:                                                ; preds = %4
  %6 = load ptr, ptr %0, align 8, !tbaa !3
  %7 = tail call i32 @uriFreeUriMembersMmA(ptr noundef %6, ptr noundef %3)
  %8 = getelementptr inbounds nuw i8, ptr %0, i64 16
  store ptr %2, ptr %8, align 8, !tbaa !28
  %9 = getelementptr inbounds nuw i8, ptr %0, i64 8
  store i32 1, ptr %9, align 8, !tbaa !29
  br label %47

10:                                               ; preds = %4
  %11 = load i8, ptr %1, align 1, !tbaa !11
  switch i8 %11, label %42 [
    i8 118, label %12
    i8 58, label %30
    i8 93, label %30
    i8 48, label %30
    i8 49, label %30
    i8 50, label %30
    i8 51, label %30
    i8 52, label %30
    i8 53, label %30
    i8 54, label %30
    i8 55, label %30
    i8 56, label %30
    i8 57, label %30
    i8 65, label %30
    i8 66, label %30
    i8 67, label %30
    i8 68, label %30
    i8 69, label %30
    i8 70, label %30
    i8 97, label %30
    i8 98, label %30
    i8 99, label %30
    i8 100, label %30
    i8 101, label %30
    i8 102, label %30
  ]

12:                                               ; preds = %10
  %13 = tail call fastcc ptr @uriParseIpFutureA(ptr noundef %0, ptr noundef %1, ptr noundef %2, ptr noundef %3)
  %14 = icmp eq ptr %13, null
  br i1 %14, label %47, label %15

15:                                               ; preds = %12
  %.not39 = icmp ult ptr %13, %2
  br i1 %.not39, label %21, label %16

16:                                               ; preds = %15
  %17 = load ptr, ptr %0, align 8, !tbaa !3
  %18 = tail call i32 @uriFreeUriMembersMmA(ptr noundef %17, ptr noundef %3)
  %19 = getelementptr inbounds nuw i8, ptr %0, i64 16
  store ptr %2, ptr %19, align 8, !tbaa !28
  %20 = getelementptr inbounds nuw i8, ptr %0, i64 8
  store i32 1, ptr %20, align 8, !tbaa !29
  br label %47

21:                                               ; preds = %15
  %22 = load i8, ptr %13, align 1, !tbaa !11
  %.not40 = icmp eq i8 %22, 93
  br i1 %.not40, label %28, label %23

23:                                               ; preds = %21
  %24 = load ptr, ptr %0, align 8, !tbaa !3
  %25 = tail call i32 @uriFreeUriMembersMmA(ptr noundef %24, ptr noundef %3)
  %26 = getelementptr inbounds nuw i8, ptr %0, i64 16
  store ptr %13, ptr %26, align 8, !tbaa !28
  %27 = getelementptr inbounds nuw i8, ptr %0, i64 8
  store i32 1, ptr %27, align 8, !tbaa !29
  br label %47

28:                                               ; preds = %21
  %29 = getelementptr inbounds nuw i8, ptr %13, i64 1
  br label %47

30:                                               ; preds = %10, %10, %10, %10, %10, %10, %10, %10, %10, %10, %10, %10, %10, %10, %10, %10, %10, %10, %10, %10, %10, %10, %10, %10
  %31 = load ptr, ptr %3, align 8, !tbaa !49
  %32 = tail call ptr %31(ptr noundef nonnull %3, i64 noundef 16) #7
  %33 = load ptr, ptr %0, align 8, !tbaa !3
  %34 = getelementptr inbounds nuw i8, ptr %33, i64 56
  store ptr %32, ptr %34, align 8, !tbaa !39
  %35 = icmp eq ptr %32, null
  br i1 %35, label %36, label %40

36:                                               ; preds = %30
  %37 = tail call i32 @uriFreeUriMembersMmA(ptr noundef nonnull %33, ptr noundef nonnull %3)
  %38 = getelementptr inbounds nuw i8, ptr %0, i64 16
  store ptr null, ptr %38, align 8, !tbaa !28
  %39 = getelementptr inbounds nuw i8, ptr %0, i64 8
  store i32 3, ptr %39, align 8, !tbaa !29
  br label %47

40:                                               ; preds = %30
  %41 = tail call fastcc ptr @uriParseIPv6address2A(ptr noundef %0, ptr noundef nonnull %1, ptr noundef nonnull %2, ptr noundef nonnull %3)
  br label %47

42:                                               ; preds = %10
  %43 = load ptr, ptr %0, align 8, !tbaa !3
  %44 = tail call i32 @uriFreeUriMembersMmA(ptr noundef %43, ptr noundef %3)
  %45 = getelementptr inbounds nuw i8, ptr %0, i64 16
  store ptr %1, ptr %45, align 8, !tbaa !28
  %46 = getelementptr inbounds nuw i8, ptr %0, i64 8
  store i32 1, ptr %46, align 8, !tbaa !29
  br label %47

47:                                               ; preds = %16, %23, %28, %12, %42, %40, %36, %5
  %.0 = phi ptr [ null, %5 ], [ null, %42 ], [ null, %36 ], [ %41, %40 ], [ null, %16 ], [ null, %23 ], [ %29, %28 ], [ null, %12 ]
  ret ptr %.0
}